; ModuleID = '19/3063.c'
source_filename = "19/3063.c"
target datalayout = "e-m:e-p270:32:32-p271:32:32-p272:64:64-i64:64-f80:128-n8:16:32:64-S128"
target triple = "x86_64-pc-linux-gnu"

@.str = private unnamed_addr constant [5 x i8] c"%s%s\00", align 1
@.str.1 = private unnamed_addr constant [3 x i8] c"%s\00", align 1
@.str.2 = private unnamed_addr constant [3 x i8] c"%c\00", align 1

; Function Attrs: noinline nounwind uwtable
define dso_local i32 @main() #0 {
  %1 = alloca i32, align 4
  %2 = alloca [9999 x i8], align 16
  %3 = alloca [101 x i8], align 16
  %4 = alloca [101 x i8], align 16
  %5 = alloca i32, align 4
  %6 = alloca i32, align 4
  %7 = alloca i32, align 4
  %8 = alloca i32, align 4
  %9 = alloca i32, align 4
  %10 = alloca i32, align 4
  %11 = alloca i32, align 4
  store i32 0, i32* %1, align 4
  store i32 0, i32* %6, align 4
  store i32 0, i32* %11, align 4
  %12 = getelementptr inbounds [9999 x i8], [9999 x i8]* %2, i64 0, i64 0
  %13 = call i32 (i8*, ...) bitcast (i32 (...)* @gets to i32 (i8*, ...)*)(i8* %12)
  %14 = getelementptr inbounds [101 x i8], [101 x i8]* %3, i64 0, i64 0
  %15 = getelementptr inbounds [101 x i8], [101 x i8]* %4, i64 0, i64 0
  %16 = call i32 (i8*, ...) @__isoc99_scanf(i8* getelementptr inbounds ([5 x i8], [5 x i8]* @.str, i64 0, i64 0), i8* %14, i8* %15)
  store i32 0, i32* %5, align 4
  br label %17

17:                                               ; preds = %88, %0
  %18 = load i32, i32* %5, align 4
  %19 = sext i32 %18 to i64
  %20 = getelementptr inbounds [9999 x i8], [9999 x i8]* %2, i64 0, i64 0
  %21 = call i64 @strlen(i8* %20) #3
  %22 = icmp ult i64 %19, %21
  br i1 %22, label %23, label %91

23:                                               ; preds = %17
  %24 = load i32, i32* %5, align 4
  %25 = icmp eq i32 %24, 0
  br i1 %25, label %34, label %26

26:                                               ; preds = %23
  %27 = load i32, i32* %5, align 4
  %28 = sub nsw i32 %27, 1
  %29 = sext i32 %28 to i64
  %30 = getelementptr inbounds [9999 x i8], [9999 x i8]* %2, i64 0, i64 %29
  %31 = load i8, i8* %30, align 1
  %32 = sext i8 %31 to i32
  %33 = icmp eq i32 %32, 32
  br i1 %33, label %34, label %67

34:                                               ; preds = %26, %23
  store i32 0, i32* %6, align 4
  br label %35

35:                                               ; preds = %63, %34
  %36 = load i32, i32* %6, align 4
  %37 = sext i32 %36 to i64
  %38 = getelementptr inbounds [101 x i8], [101 x i8]* %3, i64 0, i64 0
  %39 = call i64 @strlen(i8* %38) #3
  %40 = icmp ult i64 %37, %39
  br i1 %40, label %41, label %66

41:                                               ; preds = %35
  %42 = getelementptr inbounds [9999 x i8], [9999 x i8]* %2, i64 0, i64 0
  %43 = load i32, i32* %5, align 4
  %44 = sext i32 %43 to i64
  %45 = getelementptr inbounds i8, i8* %42, i64 %44
  %46 = load i32, i32* %6, align 4
  %47 = sext i32 %46 to i64
  %48 = getelementptr inbounds i8, i8* %45, i64 %47
  %49 = load i8, i8* %48, align 1
  %50 = sext i8 %49 to i32
  %51 = getelementptr inbounds [101 x i8], [101 x i8]* %3, i64 0, i64 0
  %52 = load i32, i32* %6, align 4
  %53 = sext i32 %52 to i64
  %54 = getelementptr inbounds i8, i8* %51, i64 %53
  %55 = load i8, i8* %54, align 1
  %56 = sext i8 %55 to i32
  %57 = icmp eq i32 %50, %56
  br i1 %57, label %58, label %61

58:                                               ; preds = %41
  %59 = load i32, i32* %11, align 4
  %60 = add nsw i32 %59, 1
  store i32 %60, i32* %11, align 4
  br label %62

61:                                               ; preds = %41
  store i32 0, i32* %11, align 4
  br label %66

62:                                               ; preds = %58
  br label %63

63:                                               ; preds = %62
  %64 = load i32, i32* %6, align 4
  %65 = add nsw i32 %64, 1
  store i32 %65, i32* %6, align 4
  br label %35

66:                                               ; preds = %61, %35
  br label %67

67:                                               ; preds = %66, %26
  %68 = load i32, i32* %11, align 4
  %69 = icmp ne i32 %68, 0
  br i1 %69, label %70, label %80

70:                                               ; preds = %67
  %71 = getelementptr inbounds [101 x i8], [101 x i8]* %4, i64 0, i64 0
  %72 = call i32 (i8*, ...) @printf(i8* getelementptr inbounds ([3 x i8], [3 x i8]* @.str.1, i64 0, i64 0), i8* %71)
  %73 = getelementptr inbounds [101 x i8], [101 x i8]* %3, i64 0, i64 0
  %74 = call i64 @strlen(i8* %73) #3
  %75 = sub i64 %74, 1
  %76 = load i32, i32* %5, align 4
  %77 = sext i32 %76 to i64
  %78 = add i64 %77, %75
  %79 = trunc i64 %78 to i32
  store i32 %79, i32* %5, align 4
  store i32 0, i32* %11, align 4
  br label %87

80:                                               ; preds = %67
  %81 = load i32, i32* %5, align 4
  %82 = sext i32 %81 to i64
  %83 = getelementptr inbounds [9999 x i8], [9999 x i8]* %2, i64 0, i64 %82
  %84 = load i8, i8* %83, align 1
  %85 = sext i8 %84 to i32
  %86 = call i32 (i8*, ...) @printf(i8* getelementptr inbounds ([3 x i8], [3 x i8]* @.str.2, i64 0, i64 0), i32 %85)
  br label %87

87:                                               ; preds = %80, %70
  br label %88

88:                                               ; preds = %87
  %89 = load i32, i32* %5, align 4
  %90 = add nsw i32 %89, 1
  store i32 %90, i32* %5, align 4
  br label %17

91:                                               ; preds = %17
  ret i32 0
}

declare dso_local i32 @gets(...) #1

declare dso_local i32 @__isoc99_scanf(i8*, ...) #1

; Function Attrs: nounwind readonly
declare dso_local i64 @strlen(i8*) #2

declare dso_local i32 @printf(i8*, ...) #1


!llvm.module.flags = !{!0}
!llvm.ident = !{!1}

!0 = !{i32 1, !"wchar_size", i32 4}
!1 = !{!"clang version 10.0.0-4ubuntu1 "}
