; ModuleID = 'source-C-CXX/18/3063.c'
source_filename = "source-C-CXX/18/3063.c"
target datalayout = "e-m:e-p270:32:32-p271:32:32-p272:64:64-i64:64-f80:128-n8:16:32:64-S128"
target triple = "x86_64-pc-linux-gnu"

@.str = private unnamed_addr constant [5 x i8] c"%s%s\00", align 1
@.str.1 = private unnamed_addr constant [3 x i8] c"%s\00", align 1

; Function Attrs: nounwind sspstrong uwtable
define dso_local i32 @main() local_unnamed_addr #0 {
  %1 = alloca [9999 x i8], align 16
  %2 = alloca [101 x i8], align 16
  %3 = alloca [101 x i8], align 16
  %4 = getelementptr inbounds [9999 x i8], [9999 x i8]* %1, i64 0, i64 0
  call void @llvm.lifetime.start.p0i8(i64 9999, i8* nonnull %4) #6
  %5 = getelementptr inbounds [101 x i8], [101 x i8]* %2, i64 0, i64 0
  call void @llvm.lifetime.start.p0i8(i64 101, i8* nonnull %5) #6
  %6 = getelementptr inbounds [101 x i8], [101 x i8]* %3, i64 0, i64 0
  call void @llvm.lifetime.start.p0i8(i64 101, i8* nonnull %6) #6
  %7 = call i32 (i8*, ...) bitcast (i32 (...)* @gets to i32 (i8*, ...)*)(i8* nonnull %4) #6
  %8 = call i32 (i8*, ...) @__isoc99_scanf(i8* getelementptr inbounds ([5 x i8], [5 x i8]* @.str, i64 0, i64 0), i8* nonnull %5, i8* nonnull %6)
  %9 = load i8, i8* %4, align 16
  %10 = icmp eq i8 %9, 0
  br i1 %10, label %53, label %11

11:                                               ; preds = %0, %47
  %12 = phi i64 [ %50, %47 ], [ 0, %0 ]
  %13 = phi i32 [ %49, %47 ], [ 0, %0 ]
  %14 = icmp eq i32 %13, 0
  br i1 %14, label %21, label %15

15:                                               ; preds = %11
  %16 = add nsw i32 %13, -1
  %17 = sext i32 %16 to i64
  %18 = getelementptr inbounds [9999 x i8], [9999 x i8]* %1, i64 0, i64 %17
  %19 = load i8, i8* %18, align 1, !tbaa !5
  %20 = icmp eq i8 %19, 32
  br i1 %20, label %21, label %42

21:                                               ; preds = %15, %11
  %22 = call i64 @strlen(i8* noundef nonnull %5) #7
  %23 = getelementptr inbounds [9999 x i8], [9999 x i8]* %1, i64 0, i64 %12
  %24 = icmp eq i64 %22, 0
  br i1 %24, label %42, label %25

25:                                               ; preds = %21, %32
  %26 = phi i64 [ %33, %32 ], [ 0, %21 ]
  %27 = getelementptr inbounds i8, i8* %23, i64 %26
  %28 = load i8, i8* %27, align 1, !tbaa !5
  %29 = getelementptr inbounds [101 x i8], [101 x i8]* %2, i64 0, i64 %26
  %30 = load i8, i8* %29, align 1, !tbaa !5
  %31 = icmp eq i8 %28, %30
  br i1 %31, label %32, label %42

32:                                               ; preds = %25
  %33 = add nuw i64 %26, 1
  %34 = icmp eq i64 %33, %22
  br i1 %34, label %35, label %25, !llvm.loop !8

35:                                               ; preds = %32
  br i1 %24, label %42, label %36

36:                                               ; preds = %35
  %37 = call i32 (i8*, ...) @printf(i8* nonnull dereferenceable(1) getelementptr inbounds ([3 x i8], [3 x i8]* @.str.1, i64 0, i64 0), i8* nonnull %6)
  %38 = call i64 @strlen(i8* noundef nonnull %5) #7
  %39 = trunc i64 %38 to i32
  %40 = add i32 %13, -1
  %41 = add i32 %40, %39
  br label %47

42:                                               ; preds = %25, %21, %15, %35
  %43 = getelementptr inbounds [9999 x i8], [9999 x i8]* %1, i64 0, i64 %12
  %44 = load i8, i8* %43, align 1, !tbaa !5
  %45 = sext i8 %44 to i32
  %46 = call i32 @putchar(i32 %45)
  br label %47

47:                                               ; preds = %36, %42
  %48 = phi i32 [ %41, %36 ], [ %13, %42 ]
  %49 = add nsw i32 %48, 1
  %50 = sext i32 %49 to i64
  %51 = call i64 @strlen(i8* noundef nonnull %4) #7
  %52 = icmp ugt i64 %51, %50
  br i1 %52, label %11, label %53, !llvm.loop !10

53:                                               ; preds = %47, %0
  call void @llvm.lifetime.end.p0i8(i64 101, i8* nonnull %6) #6
  call void @llvm.lifetime.end.p0i8(i64 101, i8* nonnull %5) #6
  call void @llvm.lifetime.end.p0i8(i64 9999, i8* nonnull %4) #6
  ret i32 0
}

; Function Attrs: argmemonly mustprogress nofree nosync nounwind willreturn
declare void @llvm.lifetime.start.p0i8(i64 immarg, i8* nocapture) #1

declare i32 @gets(...) local_unnamed_addr #2

; Function Attrs: nofree nounwind
declare noundef i32 @__isoc99_scanf(i8* nocapture noundef readonly, ...) local_unnamed_addr #3

; Function Attrs: argmemonly mustprogress nofree nounwind readonly willreturn
declare i64 @strlen(i8* nocapture) local_unnamed_addr #4

; Function Attrs: nofree nounwind
declare noundef i32 @printf(i8* nocapture noundef readonly, ...) local_unnamed_addr #3

; Function Attrs: argmemonly mustprogress nofree nosync nounwind willreturn
declare void @llvm.lifetime.end.p0i8(i64 immarg, i8* nocapture) #1

; Function Attrs: nofree nounwind
declare noundef i32 @putchar(i32 noundef) local_unnamed_addr #5


!llvm.module.flags = !{!0, !1, !2, !3}
!llvm.ident = !{!4}

!0 = !{i32 1, !"wchar_size", i32 4}
!1 = !{i32 7, !"PIC Level", i32 2}
!2 = !{i32 7, !"PIE Level", i32 2}
!3 = !{i32 7, !"uwtable", i32 1}
!4 = !{!"clang version 13.0.0"}
!5 = !{!6, !6, i64 0}
!6 = !{!"omnipotent char", !7, i64 0}
!7 = !{!"Simple C/C++ TBAA"}
!8 = distinct !{!8, !9}
!9 = !{!"llvm.loop.mustprogress"}
!10 = distinct !{!10, !9}
